; Function Attrs: mustprogress uwtable
define void @_Z10init_blockP7t_block(ptr noundef writeonly captures(none) initializes((0, 4), (8, 20)) %0) local_unnamed_addr #0 {
  store i32 0, ptr %0, align 8, !tbaa !4
  %2 = getelementptr inbounds nuw i8, ptr %0, i64 16
  store i32 1, ptr %2, align 8, !tbaa !11
  %3 = getelementptr inbounds nuw i8, ptr %0, i64 8
  %4 = tail call noundef ptr @_Z11save_callocPKcS0_imm(ptr noundef nonnull @.str, ptr noundef nonnull @.str.1, i32 noundef 55, i64 noundef 1, i64 noundef 4)
  store ptr %4, ptr %3, align 8, !tbaa !12
  store i32 0, ptr %4, align 4, !tbaa !13
  ret void
}